target datalayout = "e-m:e-p270:32:32-p271:32:32-p272:64:64-i64:64-i128:128-f80:128-n8:16:32:64-S128"
target triple = "x86_64-unknown-linux-gnu"

%class.func_entry = type { i8, ptr, [0 x ptr] }
%class.symbol = type { ptr }
%class.func_interp = type { ptr, i32, %class.ptr_vector.26, ptr, i8, ptr, ptr }
%class.ptr_vector.26 = type { %class.vector.27 }
%class.vector.27 = type { ptr }
%class.ast = type { i32, i24, i32, i32 }
%class.sort_size = type { i32, i64 }
%class.decl = type { %class.ast, %class.symbol, ptr }
%class.vector.65 = type { ptr }
%class.sort_info = type { %class.decl_info.base, %class.sort_size }
%class.decl_info.base = type <{ i32, i32, %class.vector.65, i8 }>

; Function Attrs: mustprogress nounwind uwtable
define linkonce_odr hidden noundef nonnull align 8 dereferenceable(16) ptr @_ZNK9sort_info16get_num_elementsEv(ptr noundef nonnull align 8 dereferenceable(40) %this) #5 comdat align 2 {
entry:
  %this.addr = alloca ptr, align 8
  store ptr %this, ptr %this.addr, align 8
  %this1 = load ptr, ptr %this.addr, align 8
  %m_num_elements = getelementptr inbounds %class.sort_info, ptr %this1, i32 0, i32 1
  ret ptr %m_num_elements
}

; Function Attrs: mustprogress nounwind uwtable
define linkonce_odr hidden noundef ptr @_ZNK4sort8get_infoEv(ptr noundef nonnull align 8 dereferenceable(32) %this) #5 comdat align 2 {
entry:
  %this.addr = alloca ptr, align 8
  store ptr %this, ptr %this.addr, align 8
  %this1 = load ptr, ptr %this.addr, align 8
  %m_info = getelementptr inbounds %class.decl, ptr %this1, i32 0, i32 2
  %0 = load ptr, ptr %m_info, align 8
  ret ptr %0
}

; Function Attrs: mustprogress nounwind uwtable
define linkonce_odr hidden noundef i32 @_ZNK3ast8get_kindEv(ptr noundef nonnull align 4 dereferenceable(16) %this) #5 comdat align 2 {
entry:
  %this.addr = alloca ptr, align 8
  store ptr %this, ptr %this.addr, align 8
  %this1 = load ptr, ptr %this.addr, align 8
  %m_kind = getelementptr inbounds %class.ast, ptr %this1, i32 0, i32 1
  %bf.load = load i32, ptr %m_kind, align 4
  %bf.clear = and i32 %bf.load, 65535
  ret i32 %bf.clear
}

; Function Attrs: mustprogress nounwind uwtable
define linkonce_odr hidden noundef i32 @_ZNK6vectorIP10func_entryLb0EjE4sizeEv(ptr noundef nonnull align 8 dereferenceable(8) %this) #5 comdat align 2 {
entry:
  %retval = alloca i32, align 4
  %this.addr = alloca ptr, align 8
  store ptr %this, ptr %this.addr, align 8
  %this1 = load ptr, ptr %this.addr, align 8
  %m_data = getelementptr inbounds %class.vector.27, ptr %this1, i32 0, i32 0
  %0 = load ptr, ptr %m_data, align 8
  %cmp = icmp eq ptr %0, null
  br i1 %cmp, label %if.then, label %if.end

if.then:                                          ; preds = %entry
  store i32 0, ptr %retval, align 4
  br label %return

if.end:                                           ; preds = %entry
  %m_data2 = getelementptr inbounds %class.vector.27, ptr %this1, i32 0, i32 0
  %1 = load ptr, ptr %m_data2, align 8
  %arrayidx = getelementptr inbounds i32, ptr %1, i64 -1
  %2 = load i32, ptr %arrayidx, align 4
  store i32 %2, ptr %retval, align 4
  br label %return

return:                                           ; preds = %if.end, %if.then
  %3 = load i32, ptr %retval, align 4
  ret i32 %3
}

; Function Attrs: mustprogress nounwind uwtable
define linkonce_odr hidden noundef i64 @_ZNK9sort_size4sizeEv(ptr noundef nonnull align 8 dereferenceable(16) %this) #5 comdat align 2 {
entry:
  %this.addr = alloca ptr, align 8
  store ptr %this, ptr %this.addr, align 8
  %this1 = load ptr, ptr %this.addr, align 8
  %m_size = getelementptr inbounds %class.sort_size, ptr %this1, i32 0, i32 1
  %0 = load i64, ptr %m_size, align 8
  ret i64 %0
}

; Function Attrs: mustprogress nounwind uwtable
define linkonce_odr hidden noundef zeroext i1 @_ZNK9sort_size9is_finiteEv(ptr noundef nonnull align 8 dereferenceable(16) %this) #5 comdat align 2 {
entry:
  %this.addr = alloca ptr, align 8
  store ptr %this, ptr %this.addr, align 8
  %this1 = load ptr, ptr %this.addr, align 8
  %m_kind = getelementptr inbounds %class.sort_size, ptr %this1, i32 0, i32 0
  %0 = load i32, ptr %m_kind, align 8
  %cmp = icmp eq i32 %0, 0
  ret i1 %cmp
}

; Function Attrs: mustprogress uwtable
define linkonce_odr hidden noundef nonnull align 8 dereferenceable(16) ptr @_ZNK4sort16get_num_elementsEv(ptr noundef nonnull align 8 dereferenceable(32) %this) #4 comdat align 2 {
entry:
  %this.addr = alloca ptr, align 8
  store ptr %this, ptr %this.addr, align 8
  %this1 = load ptr, ptr %this.addr, align 8
  %call = call noundef ptr @_ZNK4sort8get_infoEv(ptr noundef nonnull align 8 dereferenceable(32) %this1)
  %call2 = call noundef nonnull align 8 dereferenceable(16) ptr @_ZNK9sort_info16get_num_elementsEv(ptr noundef nonnull align 8 dereferenceable(40) %call)
  ret ptr %call2
}

; Function Attrs: mustprogress nounwind uwtable
define linkonce_odr hidden noundef nonnull align 8 dereferenceable(976) ptr @_ZNK11func_interp1mEv(ptr noundef nonnull align 8 dereferenceable(56) %this) #5 comdat align 2 {
entry:
  %this.addr = alloca ptr, align 8
  store ptr %this, ptr %this.addr, align 8
  %this1 = load ptr, ptr %this.addr, align 8
  %m_manager = getelementptr inbounds %class.func_interp, ptr %this1, i32 0, i32 0
  %0 = load ptr, ptr %m_manager, align 8
  ret ptr %0
}

; Function Attrs: mustprogress nounwind uwtable
define linkonce_odr hidden noundef zeroext i1 @_Z6is_varPK3ast(ptr noundef %n) #5 comdat {
entry:
  %n.addr = alloca ptr, align 8
  store ptr %n, ptr %n.addr, align 8
  %0 = load ptr, ptr %n.addr, align 8
  %call = call noundef i32 @_ZNK3ast8get_kindEv(ptr noundef nonnull align 4 dereferenceable(16) %0)
  %cmp = icmp eq i32 %call, 1
  ret i1 %cmp
}

; Function Attrs: mustprogress nounwind uwtable
define linkonce_odr hidden noundef ptr @_ZNK10func_entry10get_resultEv(ptr noundef nonnull align 8 dereferenceable(16) %this) #5 comdat align 2 {
entry:
  %this.addr = alloca ptr, align 8
  store ptr %this, ptr %this.addr, align 8
  %this1 = load ptr, ptr %this.addr, align 8
  %m_result = getelementptr inbounds %class.func_entry, ptr %this1, i32 0, i32 1
  %0 = load ptr, ptr %m_result, align 8
  ret ptr %0
}

; Function Attrs: mustprogress nounwind uwtable
define linkonce_odr hidden noundef ptr @_ZNK10func_entry7get_argEj(ptr noundef nonnull align 8 dereferenceable(16) %this, i32 noundef %idx) #5 comdat align 2 {
entry:
  %this.addr = alloca ptr, align 8
  %idx.addr = alloca i32, align 4
  store ptr %this, ptr %this.addr, align 8
  store i32 %idx, ptr %idx.addr, align 4
  %this1 = load ptr, ptr %this.addr, align 8
  %m_args = getelementptr inbounds %class.func_entry, ptr %this1, i32 0, i32 2
  %0 = load i32, ptr %idx.addr, align 4
  %idxprom = zext i32 %0 to i64
  %arrayidx = getelementptr inbounds [0 x ptr], ptr %m_args, i64 0, i64 %idxprom
  %1 = load ptr, ptr %arrayidx, align 8
  ret ptr %1
}

; Function Attrs: mustprogress nounwind uwtable
define linkonce_odr hidden noundef ptr @_ZNK6vectorIP10func_entryLb0EjE3endEv(ptr noundef nonnull align 8 dereferenceable(8) %this) #5 comdat align 2 {
entry:
  %this.addr = alloca ptr, align 8
  store ptr %this, ptr %this.addr, align 8
  %this1 = load ptr, ptr %this.addr, align 8
  %m_data = getelementptr inbounds %class.vector.27, ptr %this1, i32 0, i32 0
  %0 = load ptr, ptr %m_data, align 8
  %call = call noundef i32 @_ZNK6vectorIP10func_entryLb0EjE4sizeEv(ptr noundef nonnull align 8 dereferenceable(8) %this1)
  %idx.ext = zext i32 %call to i64
  %add.ptr = getelementptr inbounds ptr, ptr %0, i64 %idx.ext
  ret ptr %add.ptr
}

; Function Attrs: mustprogress nounwind uwtable
define linkonce_odr hidden noundef ptr @_ZNK6vectorIP10func_entryLb0EjE5beginEv(ptr noundef nonnull align 8 dereferenceable(8) %this) #5 comdat align 2 {
entry:
  %this.addr = alloca ptr, align 8
  store ptr %this, ptr %this.addr, align 8
  %this1 = load ptr, ptr %this.addr, align 8
  %m_data = getelementptr inbounds %class.vector.27, ptr %this1, i32 0, i32 0
  %0 = load ptr, ptr %m_data, align 8
  ret ptr %0
}

; Function Attrs: mustprogress uwtable
define hidden noundef zeroext i1 @_ZNK11func_interp11is_identityEv(ptr noundef nonnull align 8 dereferenceable(56) %this) #4 align 2 {
entry:
  %retval = alloca i1, align 1
  %this.addr = alloca ptr, align 8
  %__range1 = alloca ptr, align 8
  %__begin1 = alloca ptr, align 8
  %__end1 = alloca ptr, align 8
  %curr = alloca ptr, align 8
  %sz = alloca ptr, align 8
  store ptr %this, ptr %this.addr, align 8
  %this1 = load ptr, ptr %this.addr, align 8
  %m_arity = getelementptr inbounds %class.func_interp, ptr %this1, i32 0, i32 1
  %0 = load i32, ptr %m_arity, align 8
  %cmp = icmp ne i32 %0, 1
  br i1 %cmp, label %if.then, label %if.end

if.then:                                          ; preds = %entry
  store i1 false, ptr %retval, align 1
  br label %return

if.end:                                           ; preds = %entry
  %m_else = getelementptr inbounds %class.func_interp, ptr %this1, i32 0, i32 3
  %1 = load ptr, ptr %m_else, align 8
  %cmp2 = icmp eq ptr %1, null
  br i1 %cmp2, label %if.then3, label %if.end4

if.then3:                                         ; preds = %if.end
  store i1 false, ptr %retval, align 1
  br label %return

if.end4:                                          ; preds = %if.end
  %m_entries = getelementptr inbounds %class.func_interp, ptr %this1, i32 0, i32 2
  store ptr %m_entries, ptr %__range1, align 8
  %2 = load ptr, ptr %__range1, align 8
  %call = call noundef ptr @_ZNK6vectorIP10func_entryLb0EjE5beginEv(ptr noundef nonnull align 8 dereferenceable(8) %2)
  store ptr %call, ptr %__begin1, align 8
  %3 = load ptr, ptr %__range1, align 8
  %call5 = call noundef ptr @_ZNK6vectorIP10func_entryLb0EjE3endEv(ptr noundef nonnull align 8 dereferenceable(8) %3)
  store ptr %call5, ptr %__end1, align 8
  br label %for.cond

for.cond:                                         ; preds = %for.inc, %if.end4
  %4 = load ptr, ptr %__begin1, align 8
  %5 = load ptr, ptr %__end1, align 8
  %cmp6 = icmp ne ptr %4, %5
  br i1 %cmp6, label %for.body, label %for.end

for.body:                                         ; preds = %for.cond
  %6 = load ptr, ptr %__begin1, align 8
  %7 = load ptr, ptr %6, align 8
  store ptr %7, ptr %curr, align 8
  %8 = load ptr, ptr %curr, align 8
  %call7 = call noundef ptr @_ZNK10func_entry7get_argEj(ptr noundef nonnull align 8 dereferenceable(16) %8, i32 noundef 0)
  %9 = load ptr, ptr %curr, align 8
  %call8 = call noundef ptr @_ZNK10func_entry10get_resultEv(ptr noundef nonnull align 8 dereferenceable(16) %9)
  %cmp9 = icmp ne ptr %call7, %call8
  br i1 %cmp9, label %if.then10, label %if.end11

if.then10:                                        ; preds = %for.body
  store i1 false, ptr %retval, align 1
  br label %return

if.end11:                                         ; preds = %for.body
  %10 = load ptr, ptr %curr, align 8
  %call12 = call noundef ptr @_ZNK10func_entry10get_resultEv(ptr noundef nonnull align 8 dereferenceable(16) %10)
  %m_else13 = getelementptr inbounds %class.func_interp, ptr %this1, i32 0, i32 3
  %11 = load ptr, ptr %m_else13, align 8
  %cmp14 = icmp eq ptr %call12, %11
  br i1 %cmp14, label %if.then15, label %if.end16

if.then15:                                        ; preds = %if.end11
  store i1 false, ptr %retval, align 1
  br label %return

if.end16:                                         ; preds = %if.end11
  br label %for.inc

for.inc:                                          ; preds = %if.end16
  %12 = load ptr, ptr %__begin1, align 8
  %incdec.ptr = getelementptr inbounds ptr, ptr %12, i32 1
  store ptr %incdec.ptr, ptr %__begin1, align 8
  br label %for.cond

for.end:                                          ; preds = %for.cond
  %m_else17 = getelementptr inbounds %class.func_interp, ptr %this1, i32 0, i32 3
  %13 = load ptr, ptr %m_else17, align 8
  %call18 = call noundef zeroext i1 @_Z6is_varPK3ast(ptr noundef %13)
  br i1 %call18, label %if.then19, label %if.end20

if.then19:                                        ; preds = %for.end
  store i1 true, ptr %retval, align 1
  br label %return

if.end20:                                         ; preds = %for.end
  %call21 = call noundef nonnull align 8 dereferenceable(976) ptr @_ZNK11func_interp1mEv(ptr noundef nonnull align 8 dereferenceable(56) %this1)
  %m_else22 = getelementptr inbounds %class.func_interp, ptr %this1, i32 0, i32 3
  %14 = load ptr, ptr %m_else22, align 8
  %call23 = call noundef zeroext i1 @_ZNK11ast_manager8is_valueEP4expr(ptr noundef nonnull align 8 dereferenceable(976) %call21, ptr noundef %14)
  br i1 %call23, label %if.end25, label %if.then24

if.then24:                                        ; preds = %if.end20
  store i1 false, ptr %retval, align 1
  br label %return

if.end25:                                         ; preds = %if.end20
  %m_else26 = getelementptr inbounds %class.func_interp, ptr %this1, i32 0, i32 3
  %15 = load ptr, ptr %m_else26, align 8
  %call27 = call noundef ptr @_ZNK4expr8get_sortEv(ptr noundef nonnull align 4 dereferenceable(16) %15)
  %call28 = call noundef nonnull align 8 dereferenceable(16) ptr @_ZNK4sort16get_num_elementsEv(ptr noundef nonnull align 8 dereferenceable(32) %call27)
  store ptr %call28, ptr %sz, align 8
  %16 = load ptr, ptr %sz, align 8
  %call29 = call noundef zeroext i1 @_ZNK9sort_size9is_finiteEv(ptr noundef nonnull align 8 dereferenceable(16) %16)
  br i1 %call29, label %if.end31, label %if.then30

if.then30:                                        ; preds = %if.end25
  store i1 false, ptr %retval, align 1
  br label %return

if.end31:                                         ; preds = %if.end25
  %17 = load ptr, ptr %sz, align 8
  %call32 = call noundef i64 @_ZNK9sort_size4sizeEv(ptr noundef nonnull align 8 dereferenceable(16) %17)
  %m_entries33 = getelementptr inbounds %class.func_interp, ptr %this1, i32 0, i32 2
  %call34 = call noundef i32 @_ZNK6vectorIP10func_entryLb0EjE4sizeEv(ptr noundef nonnull align 8 dereferenceable(8) %m_entries33)
  %add = add i32 %call34, 1
  %conv = zext i32 %add to i64
  %cmp35 = icmp eq i64 %call32, %conv
  store i1 %cmp35, ptr %retval, align 1
  br label %return

return:                                           ; preds = %if.end31, %if.then30, %if.then24, %if.then19, %if.then15, %if.then10, %if.then3, %if.then
  %18 = load i1, ptr %retval, align 1
  ret i1 %18
}