; Function Attrs: mustprogress uwtable
define hidden noundef zeroext i1 @_ZNK11func_interp11is_identityEv(ptr nocapture noundef nonnull readonly align 8 dereferenceable(56) %this) local_unnamed_addr #3 align 2 {
entry:
  %m_arity = getelementptr inbounds i8, ptr %this, i64 8
  %0 = load i32, ptr %m_arity, align 8
  %cmp.not = icmp eq i32 %0, 1
  br i1 %cmp.not, label %if.end, label %return

if.end:                                           ; preds = %entry
  %m_else = getelementptr inbounds i8, ptr %this, i64 24
  %1 = load ptr, ptr %m_else, align 8
  %cmp2 = icmp eq ptr %1, null
  br i1 %cmp2, label %return, label %if.end4

if.end4:                                          ; preds = %if.end
  %m_entries = getelementptr inbounds i8, ptr %this, i64 16
  %2 = load ptr, ptr %m_entries, align 8
  %cmp.i.i = icmp eq ptr %2, null
  br i1 %cmp.i.i, label %for.end, label %_ZNK6vectorIP10func_entryLb0EjE3endEv.exit

_ZNK6vectorIP10func_entryLb0EjE3endEv.exit:       ; preds = %if.end4
  %arrayidx.i.i = getelementptr inbounds i8, ptr %2, i64 -4
  %3 = load i32, ptr %arrayidx.i.i, align 4
  %4 = zext i32 %3 to i64
  %add.ptr.i = getelementptr inbounds ptr, ptr %2, i64 %4
  %cmp6.not10 = icmp eq i32 %3, 0
  br i1 %cmp6.not10, label %for.end, label %for.body

for.cond:                                         ; preds = %for.body
  %incdec.ptr = getelementptr inbounds i8, ptr %__begin1.011, i64 8
  %cmp6.not = icmp eq ptr %incdec.ptr, %add.ptr.i
  br i1 %cmp6.not, label %for.end, label %for.body

for.body:                                         ; preds = %_ZNK6vectorIP10func_entryLb0EjE3endEv.exit, %for.cond
  %__begin1.011 = phi ptr [ %incdec.ptr, %for.cond ], [ %2, %_ZNK6vectorIP10func_entryLb0EjE3endEv.exit ]
  %5 = load ptr, ptr %__begin1.011, align 8
  %m_args.i = getelementptr inbounds i8, ptr %5, i64 16
  %6 = load ptr, ptr %m_args.i, align 8
  %m_result.i = getelementptr inbounds i8, ptr %5, i64 8
  %7 = load ptr, ptr %m_result.i, align 8
  %cmp9.not = icmp ne ptr %6, %7
  %cmp14 = icmp eq ptr %7, %1
  %or.cond = or i1 %cmp9.not, %cmp14
  br i1 %or.cond, label %return, label %for.cond

for.end:                                          ; preds = %for.cond, %if.end4, %_ZNK6vectorIP10func_entryLb0EjE3endEv.exit
  %m_kind.i.i = getelementptr inbounds i8, ptr %1, i64 4
  %bf.load.i.i = load i32, ptr %m_kind.i.i, align 4
  %bf.clear.i.i = and i32 %bf.load.i.i, 65535
  %cmp.i = icmp eq i32 %bf.clear.i.i, 1
  br i1 %cmp.i, label %return, label %if.end20

if.end20:                                         ; preds = %for.end
  %8 = load ptr, ptr %this, align 8
  %call23 = tail call noundef zeroext i1 @_ZNK11ast_manager8is_valueEP4expr(ptr noundef nonnull align 8 dereferenceable(976) %8, ptr noundef nonnull %1)
  br i1 %call23, label %if.end25, label %return

if.end25:                                         ; preds = %if.end20
  %9 = load ptr, ptr %m_else, align 8
  %call27 = tail call noundef ptr @_ZNK4expr8get_sortEv(ptr noundef nonnull align 4 dereferenceable(16) %9)
  %m_info.i.i = getelementptr inbounds i8, ptr %call27, i64 24
  %10 = load ptr, ptr %m_info.i.i, align 8
  %m_num_elements.i.i = getelementptr inbounds i8, ptr %10, i64 24
  %11 = load i32, ptr %m_num_elements.i.i, align 8
  %cmp.i8 = icmp eq i32 %11, 0
  br i1 %cmp.i8, label %if.end31, label %return

if.end31:                                         ; preds = %if.end25
  %m_size.i = getelementptr inbounds i8, ptr %10, i64 32
  %12 = load i64, ptr %m_size.i, align 8
  %13 = load ptr, ptr %m_entries, align 8
  %cmp.i9 = icmp eq ptr %13, null
  br i1 %cmp.i9, label %_ZNK6vectorIP10func_entryLb0EjE4sizeEv.exit, label %if.end.i

if.end.i:                                         ; preds = %if.end31
  %arrayidx.i = getelementptr inbounds i8, ptr %13, i64 -4
  %14 = load i32, ptr %arrayidx.i, align 4
  %15 = add i32 %14, 1
  %16 = zext i32 %15 to i64
  br label %_ZNK6vectorIP10func_entryLb0EjE4sizeEv.exit

_ZNK6vectorIP10func_entryLb0EjE4sizeEv.exit:      ; preds = %if.end31, %if.end.i
  %retval.0.i = phi i64 [ %16, %if.end.i ], [ 1, %if.end31 ]
  %cmp35 = icmp eq i64 %12, %retval.0.i
  br label %return

return:                                           ; preds = %for.body, %if.end25, %if.end20, %for.end, %if.end, %entry, %_ZNK6vectorIP10func_entryLb0EjE4sizeEv.exit
  %retval.0 = phi i1 [ %cmp35, %_ZNK6vectorIP10func_entryLb0EjE4sizeEv.exit ], [ false, %entry ], [ false, %if.end ], [ true, %for.end ], [ false, %if.end20 ], [ false, %if.end25 ], [ false, %for.body ]
  ret i1 %retval.0
}